ccopy_reg
_reconstructor
p1
(c__main__
dogEvent
p2
c__builtin__
object
p3
NtRp4
(dp5
S'visitor'
p6
S'James'
p7
sS'behavior'
p8
S'barked'
p9
sS'time'
p10
cdatetime
datetime
p11
(S"\x07\xe0\x05\x02\x17\x18'\x0b\xda\xb6"
tRp12
sb.