ccopy_reg
_reconstructor
p1
(c__main__
dogEvent
p2
c__builtin__
object
p3
NtRp4
(dp5
S'behaviors'
p6
(lp7
S'peed'
p8
aS'pooped'
p9
aS'ate'
p10
aS'bit me'
p11
aS'played'
p12
asS'visitor'
p13
S'James'
p14
sS'time'
p15
cdatetime
datetime
p16
(S'\x07\xe0\x05\x02\x100\x1e\x05\xdb\xac'
tRp17
sb.