ccopy_reg
_reconstructor
p1
(c__main__
dogEvent
p2
c__builtin__
object
p3
NtRp4
(dp5
S'visitor'
p6
S'James'
p7
sS'behavior'
p8
S'pooped'
p9
sS'time'
p10
cdatetime
datetime
p11
(S'\x07\xe0\x05\x03\n5;\x0b\x8c\x1c'
tRp12
sb.